; Function Attrs: mustprogress nounwind uwtable
define void @_ZN6google8protobuf9FieldMaskD2Ev(ptr noundef nonnull align 8 dereferenceable(48) %this) unnamed_addr #5 align 2 personality ptr @__gxx_personality_v0 {
entry:
  %_internal_metadata_ = getelementptr inbounds i8, ptr %this, i64 8
  %0 = load i64, ptr %_internal_metadata_, align 8
  %and.i.i = and i64 %0, 1
  %tobool.i.not.i = icmp eq i64 %and.i.i, 0
  br i1 %tobool.i.not.i, label %invoke.cont, label %if.then.i

if.then.i:                                        ; preds = %entry
  invoke void @_ZN6google8protobuf8internal16InternalMetadata21DeleteOutOfLineHelperINS0_15UnknownFieldSetEEEvv(ptr noundef nonnull align 8 dereferenceable(8) %_internal_metadata_)
          to label %invoke.cont unwind label %terminate.lpad

invoke.cont:                                      ; preds = %entry, %if.then.i
  %1 = getelementptr inbounds i8, ptr %this, i64 16
  %2 = load ptr, ptr %1, align 8
  %cmp.i.i.i.i = icmp ne ptr %2, null
  %arena_.i.i.i.i = getelementptr inbounds i8, ptr %this, i64 32
  %3 = load ptr, ptr %arena_.i.i.i.i, align 8
  %cmp.not.i.i.i.i = icmp eq ptr %3, null
  %or.cond.i.i.i = select i1 %cmp.i.i.i.i, i1 %cmp.not.i.i.i.i, i1 false
  br i1 %or.cond.i.i.i, label %if.end.i.i.i.i, label %_ZN6google8protobuf9FieldMask10SharedDtorEv.exit

if.end.i.i.i.i:                                   ; preds = %invoke.cont
  %4 = ptrtoint ptr %2 to i64
  %and.i.i.i.i.i.i = and i64 %4, 1
  %cmp.i.i.i.i.i.i = icmp eq i64 %and.i.i.i.i.i.i, 0
  br i1 %cmp.i.i.i.i.i.i, label %for.body.preheader.i.i.i.i, label %_ZNK6google8protobuf8internal20RepeatedPtrFieldBase14allocated_sizeEv.exit.i.i.i.i

_ZNK6google8protobuf8internal20RepeatedPtrFieldBase14allocated_sizeEv.exit.i.i.i.i: ; preds = %if.end.i.i.i.i
  %sub.i.i.i.i.i.i.i = add nsw i64 %4, -1
  %5 = inttoptr i64 %sub.i.i.i.i.i.i.i to ptr
  %6 = load i32, ptr %5, align 8
  %elements.i.i.i.i.i = getelementptr inbounds i8, ptr %5, i64 8
  %cmp36.i.i.i.i = icmp sgt i32 %6, 0
  br i1 %cmp36.i.i.i.i, label %for.body.preheader.i.i.i.i, label %if.then5.i.i.i.i

for.body.preheader.i.i.i.i:                       ; preds = %_ZNK6google8protobuf8internal20RepeatedPtrFieldBase14allocated_sizeEv.exit.i.i.i.i, %if.end.i.i.i.i
  %cond.i5.i7.i.i.i = phi ptr [ %elements.i.i.i.i.i, %_ZNK6google8protobuf8internal20RepeatedPtrFieldBase14allocated_sizeEv.exit.i.i.i.i ], [ %1, %if.end.i.i.i.i ]
  %cond3.i.i6.i.i.i = phi i32 [ %6, %_ZNK6google8protobuf8internal20RepeatedPtrFieldBase14allocated_sizeEv.exit.i.i.i.i ], [ 1, %if.end.i.i.i.i ]
  %wide.trip.count.i.i.i.i = zext nneg i32 %cond3.i.i6.i.i.i to i64
  br label %for.body.i.i.i.i

for.body.i.i.i.i:                                 ; preds = %_ZN6google8protobuf8internal20RepeatedPtrFieldBase6DeleteINS1_18GenericTypeHandlerINSt7__cxx1112basic_stringIcSt11char_traitsIcESaIcEEEEEEEvPvPNS0_5ArenaE.exit.i.i.i.i, %for.body.preheader.i.i.i.i
  %indvars.iv.i.i.i.i = phi i64 [ 0, %for.body.preheader.i.i.i.i ], [ %indvars.iv.next.i.i.i.i, %_ZN6google8protobuf8internal20RepeatedPtrFieldBase6DeleteINS1_18GenericTypeHandlerINSt7__cxx1112basic_stringIcSt11char_traitsIcESaIcEEEEEEEvPvPNS0_5ArenaE.exit.i.i.i.i ]
  %arrayidx.i.i.i.i = getelementptr inbounds ptr, ptr %cond.i5.i7.i.i.i, i64 %indvars.iv.i.i.i.i
  %7 = load ptr, ptr %arrayidx.i.i.i.i, align 8
  %isnull.i.i.i.i.i.i = icmp eq ptr %7, null
  br i1 %isnull.i.i.i.i.i.i, label %_ZN6google8protobuf8internal20RepeatedPtrFieldBase6DeleteINS1_18GenericTypeHandlerINSt7__cxx1112basic_stringIcSt11char_traitsIcESaIcEEEEEEEvPvPNS0_5ArenaE.exit.i.i.i.i, label %delete.notnull.i.i.i.i.i.i

delete.notnull.i.i.i.i.i.i:                       ; preds = %for.body.i.i.i.i
  tail call void @_ZNSt7__cxx1112basic_stringIcSt11char_traitsIcESaIcEED1Ev(ptr noundef nonnull align 8 dereferenceable(32) %7) #14
  tail call void @_ZdlPv(ptr noundef nonnull %7) #15
  br label %_ZN6google8protobuf8internal20RepeatedPtrFieldBase6DeleteINS1_18GenericTypeHandlerINSt7__cxx1112basic_stringIcSt11char_traitsIcESaIcEEEEEEEvPvPNS0_5ArenaE.exit.i.i.i.i

_ZN6google8protobuf8internal20RepeatedPtrFieldBase6DeleteINS1_18GenericTypeHandlerINSt7__cxx1112basic_stringIcSt11char_traitsIcESaIcEEEEEEEvPvPNS0_5ArenaE.exit.i.i.i.i: ; preds = %delete.notnull.i.i.i.i.i.i, %for.body.i.i.i.i
  %indvars.iv.next.i.i.i.i = add nuw nsw i64 %indvars.iv.i.i.i.i, 1
  %exitcond.not.i.i.i.i = icmp eq i64 %indvars.iv.next.i.i.i.i, %wide.trip.count.i.i.i.i
  br i1 %exitcond.not.i.i.i.i, label %for.end.i.i.i.i, label %for.body.i.i.i.i, !llvm.loop !4

for.end.i.i.i.i:                                  ; preds = %_ZN6google8protobuf8internal20RepeatedPtrFieldBase6DeleteINS1_18GenericTypeHandlerINSt7__cxx1112basic_stringIcSt11char_traitsIcESaIcEEEEEEEvPvPNS0_5ArenaE.exit.i.i.i.i
  %.pre.i.i.i.i = load ptr, ptr %1, align 8
  %.pre11.i.i.i.i = ptrtoint ptr %.pre.i.i.i.i to i64
  %.pre13.i.i.i.i = and i64 %.pre11.i.i.i.i, 1
  %cmp.i.i.i.i.i = icmp eq i64 %.pre13.i.i.i.i, 0
  br i1 %cmp.i.i.i.i.i, label %_ZN6google8protobuf9FieldMask10SharedDtorEv.exit, label %for.end.i.if.then5.i_crit_edge.i.i.i

for.end.i.if.then5.i_crit_edge.i.i.i:             ; preds = %for.end.i.i.i.i
  %.pre.i.i.i = add nsw i64 %.pre11.i.i.i.i, -1
  %.pre12.i.i.i = inttoptr i64 %.pre.i.i.i to ptr
  br label %if.then5.i.i.i.i

if.then5.i.i.i.i:                                 ; preds = %for.end.i.if.then5.i_crit_edge.i.i.i, %_ZNK6google8protobuf8internal20RepeatedPtrFieldBase14allocated_sizeEv.exit.i.i.i.i
  %.pre-phi.i.i.i = phi ptr [ %.pre12.i.i.i, %for.end.i.if.then5.i_crit_edge.i.i.i ], [ %5, %_ZNK6google8protobuf8internal20RepeatedPtrFieldBase14allocated_sizeEv.exit.i.i.i.i ]
  tail call void @_ZdlPv(ptr noundef %.pre-phi.i.i.i) #14
  br label %_ZN6google8protobuf9FieldMask10SharedDtorEv.exit

_ZN6google8protobuf9FieldMask10SharedDtorEv.exit: ; preds = %invoke.cont, %for.end.i.i.i.i, %if.then5.i.i.i.i
  ret void

terminate.lpad:                                   ; preds = %if.then.i
  %8 = landingpad { ptr, i32 }
          catch ptr null
  %9 = extractvalue { ptr, i32 } %8, 0
  tail call void @__clang_call_terminate(ptr %9) #16
  unreachable
}